target datalayout = "e-m:e-p270:32:32-p271:32:32-p272:64:64-i64:64-i128:128-f80:128-n8:16:32:64-S128"
target triple = "x86_64-unknown-linux-gnu"

%"class.QuantLib::BespokeCalendar::Impl" = type <{ %"class.QuantLib::Calendar::Impl", %"class.std::__cxx11::basic_string", i32, [4 x i8] }>
%"class.QuantLib::Calendar::Impl" = type { ptr, %"class.std::set", %"class.std::set" }
%"class.std::set" = type { %"class.std::_Rb_tree" }
%"class.std::_Rb_tree" = type { %"struct.std::_Rb_tree<QuantLib::Date, QuantLib::Date, std::_Identity<QuantLib::Date>, std::less<QuantLib::Date>>::_Rb_tree_impl" }
%"struct.std::_Rb_tree<QuantLib::Date, QuantLib::Date, std::_Identity<QuantLib::Date>, std::less<QuantLib::Date>>::_Rb_tree_impl" = type { [8 x i8], %"struct.std::_Rb_tree_header" }
%"struct.std::_Rb_tree_header" = type { %"struct.std::_Rb_tree_node_base", i64 }
%"struct.std::_Rb_tree_node_base" = type { i32, ptr, ptr, ptr }
%"class.std::__cxx11::basic_string" = type { %"struct.std::__cxx11::basic_string<char>::_Alloc_hider", i64, %union.anon }
%"struct.std::__cxx11::basic_string<char>::_Alloc_hider" = type { ptr }
%union.anon = type { i64, [8 x i8] }
%"class.QuantLib::Date" = type { i64 }

; Function Attrs: mustprogress nounwind uwtable
define noundef zeroext i1 @_ZNK8QuantLib15BespokeCalendar4Impl9isWeekendENS_7WeekdayE(ptr noundef nonnull align 8 dereferenceable(144) %this, i32 noundef %w) unnamed_addr #0 align 2 {
entry:
  %this.addr = alloca ptr, align 8
  %w.addr = alloca i32, align 4
  store ptr %this, ptr %this.addr, align 8, !tbaa !3
  store i32 %w, ptr %w.addr, align 4, !tbaa !25
  %this1 = load ptr, ptr %this.addr, align 8
  %weekend_mask_ = getelementptr inbounds nuw %"class.QuantLib::BespokeCalendar::Impl", ptr %this1, i32 0, i32 2
  %0 = load i32, ptr %weekend_mask_, align 8, !tbaa !9
  %1 = load i32, ptr %w.addr, align 4, !tbaa !25
  %shl = shl i32 1, %1
  %and = and i32 %0, %shl
  %cmp = icmp ne i32 %and, 0
  ret i1 %cmp
}

; Function Attrs: inlinehint mustprogress nounwind uwtable
define linkonce_odr noundef i32 @_ZNK8QuantLib4Date7weekdayEv(ptr noundef nonnull align 8 dereferenceable(8) %this) #1 comdat align 2 {
entry:
  %this.addr = alloca ptr, align 8
  %w = alloca i32, align 4
  store ptr %this, ptr %this.addr, align 8, !tbaa !3
  %this1 = load ptr, ptr %this.addr, align 8
  call void @llvm.lifetime.start.p0(i64 4, ptr %w) #14
  %serialNumber_ = getelementptr inbounds nuw %"class.QuantLib::Date", ptr %this1, i32 0, i32 0
  %0 = load i64, ptr %serialNumber_, align 8, !tbaa !27
  %rem = srem i64 %0, 7
  %conv = trunc i64 %rem to i32
  store i32 %conv, ptr %w, align 4, !tbaa !29
  %1 = load i32, ptr %w, align 4, !tbaa !29
  %cmp = icmp eq i32 %1, 0
  br i1 %cmp, label %cond.true, label %cond.false

cond.true:                                        ; preds = %entry
  br label %cond.end

cond.false:                                       ; preds = %entry
  %2 = load i32, ptr %w, align 4, !tbaa !29
  br label %cond.end

cond.end:                                         ; preds = %cond.false, %cond.true
  %cond = phi i32 [ 7, %cond.true ], [ %2, %cond.false ]
  call void @llvm.lifetime.end.p0(i64 4, ptr %w) #14
  ret i32 %cond
}

; Function Attrs: mustprogress uwtable
define noundef zeroext i1 @_ZNK8QuantLib15BespokeCalendar4Impl13isBusinessDayERKNS_4DateE(ptr noundef nonnull align 8 dereferenceable(144) %this, ptr noundef nonnull align 8 dereferenceable(8) %date) unnamed_addr #2 align 2 {
entry:
  %this.addr = alloca ptr, align 8
  %date.addr = alloca ptr, align 8
  store ptr %this, ptr %this.addr, align 8, !tbaa !3
  store ptr %date, ptr %date.addr, align 8, !tbaa !3
  %this1 = load ptr, ptr %this.addr, align 8
  %0 = load ptr, ptr %date.addr, align 8, !tbaa !3
  %call = call noundef i32 @_ZNK8QuantLib4Date7weekdayEv(ptr noundef nonnull align 8 dereferenceable(8) %0)
  %call2 = call noundef zeroext i1 @_ZNK8QuantLib15BespokeCalendar4Impl9isWeekendENS_7WeekdayE(ptr noundef nonnull align 8 dereferenceable(144) %this1, i32 noundef %call)
  %lnot = xor i1 %call2, true
  ret i1 %lnot
}